; Function Attrs: mustprogress nofree norecurse nosync nounwind willreturn memory(none) uwtable
define hidden noundef zeroext i1 @_ZN17CirclesGridFinder23areSegmentsIntersectingENS_7SegmentES0_(<2 x float> %0, <2 x float> %1, <2 x float> %2, <2 x float> %3) local_unnamed_addr #15 align 2 {
  %5 = fsub <2 x float> %1, %2
  %6 = fsub <2 x float> %3, %0
  %7 = shufflevector <2 x float> %0, <2 x float> %2, <2 x i32> <i32 0, i32 2>
  %8 = shufflevector <2 x float> %2, <2 x float> %0, <2 x i32> <i32 0, i32 2>
  %9 = fsub <2 x float> %7, %8
  %10 = shufflevector <2 x float> %0, <2 x float> %2, <2 x i32> <i32 1, i32 3>
  %11 = shufflevector <2 x float> %2, <2 x float> %0, <2 x i32> <i32 1, i32 3>
  %12 = fsub <2 x float> %10, %11
  %13 = shufflevector <2 x float> %3, <2 x float> %1, <2 x i32> <i32 0, i32 2>
  %14 = fsub <2 x float> %13, %8
  %15 = shufflevector <2 x float> %3, <2 x float> %1, <2 x i32> <i32 1, i32 3>
  %16 = fsub <2 x float> %15, %11
  %17 = fneg <2 x float> %12
  %18 = fmul <2 x float> %14, %17
  %19 = tail call <2 x float> @llvm.fmuladd.v2f32(<2 x float> %9, <2 x float> %16, <2 x float> %18)
  %20 = fpext <2 x float> %19 to <2 x double>
  %21 = shufflevector <2 x float> %1, <2 x float> %3, <2 x i32> <i32 1, i32 3>
  %22 = fsub <2 x float> %21, %11
  %23 = fneg <2 x float> %22
  %24 = fmul <2 x float> %14, %23
  %25 = shufflevector <2 x float> %16, <2 x float> %6, <2 x i32> <i32 0, i32 2>
  %26 = shufflevector <2 x float> %5, <2 x float> %16, <2 x i32> <i32 0, i32 3>
  %27 = tail call <2 x float> @llvm.fmuladd.v2f32(<2 x float> %25, <2 x float> %26, <2 x float> %24)
  %28 = fpext <2 x float> %27 to <2 x double>
  %29 = fmul <2 x double> %20, %28
  %30 = fcmp olt <2 x double> %29, zeroinitializer
  %shift = shufflevector <2 x i1> %30, <2 x i1> poison, <2 x i32> <i32 1, i32 poison>
  %31 = and <2 x i1> %30, %shift
  %32 = extractelement <2 x i1> %31, i64 0
  ret i1 %32
}